target datalayout = "e-m:e-p270:32:32-p271:32:32-p272:64:64-i64:64-i128:128-f80:128-n8:16:32:64-S128"
target triple = "x86_64-pc-linux-gnu"

%struct.Curl_sockaddr_ex = type { i32, i32, i32, i32, %union.anon }
%union.anon = type { %struct.Curl_sockaddr_storage }
%struct.Curl_sockaddr_storage = type { %union.anon.0 }
%union.anon.0 = type { %struct.sockaddr_storage }
%struct.sockaddr_storage = type { i16, [118 x i8], i64 }
%struct.Curl_easy = type { i32, i64, i64, ptr, %struct.Curl_llist_node, %struct.Curl_llist_node, i32, i32, %struct.Curl_message, %struct.easy_pollset, %struct.Names, ptr, ptr, ptr, ptr, %struct.SingleRequest, %struct.UserDefined, ptr, ptr, ptr, %struct.Progress, %struct.UrlState, ptr, %struct.PureInfo, %struct.curl_tlssessioninfo }
%struct.Curl_llist_node = type { ptr, ptr, ptr, ptr }
%struct.Curl_message = type { %struct.Curl_llist_node, %struct.CURLMsg }
%struct.CURLMsg = type { i32, ptr, %union.anon.3 }
%union.anon.3 = type { ptr }
%struct.easy_pollset = type { [5 x i32], i32, [5 x i8] }
%struct.Names = type { ptr, i32 }
%struct.SingleRequest = type <{ i64, i64, i64, i64, %struct.curltime, i32, i32, i32, i32, i64, i32, i32, i8, i8, [2 x i8], i32, ptr, ptr, %struct.bufq, i64, i64, ptr, ptr, %union.anon.4, ptr, i8, i32, [3 x i8] }>
%struct.curltime = type { i64, i32 }
%struct.bufq = type { ptr, ptr, ptr, ptr, i64, i64, i64, i32 }
%union.anon.4 = type { ptr }
%struct.UserDefined = type <{ ptr, ptr, ptr, ptr, ptr, ptr, i64, i64, i64, ptr, ptr, i64, ptr, ptr, ptr, ptr, ptr, ptr, ptr, ptr, ptr, ptr, ptr, ptr, ptr, ptr, ptr, ptr, ptr, ptr, ptr, ptr, ptr, ptr, ptr, i64, i64, i64, i64, i64, i64, i64, i64, i64, ptr, ptr, %struct.curl_mimepart, ptr, ptr, ptr, i64, %struct.ssl_config_data, %struct.ssl_config_data, ptr, i16, i8, i8, %struct.ssl_general_config, i32, i32, i32, [4 x i8], ptr, ptr, i64, i32, i8, i8, i8, i8, ptr, ptr, ptr, i32, [4 x i8], [74 x ptr], [8 x ptr], i32, i32, i32, [4 x i8], ptr, i32, [4 x i8], ptr, ptr, ptr, ptr, ptr, i32, i32, i32, i32, i32, i32, i32, i32, i64, ptr, ptr, i64, ptr, i64, ptr, ptr, ptr, ptr, i32, i16, i16, i16, i8, i8, i8, i8, i8, i8, i8, i8, i64, [6 x i8] }>
%struct.curl_mimepart = type { ptr, ptr, i32, i32, ptr, ptr, ptr, ptr, ptr, ptr, ptr, ptr, ptr, ptr, ptr, i64, %struct.mime_state, ptr, %struct.mime_encoder_state, i64 }
%struct.mime_state = type { i32, ptr, i64 }
%struct.mime_encoder_state = type { i64, i64, i64, [256 x i8] }
%struct.ssl_config_data = type { %struct.ssl_primary_config, i64, ptr, ptr, ptr, ptr, ptr, ptr, ptr, i16 }
%struct.ssl_primary_config = type { ptr, ptr, ptr, ptr, ptr, ptr, ptr, ptr, ptr, ptr, ptr, ptr, ptr, ptr, i8, i32, i8, i8 }
%struct.ssl_general_config = type { i32 }
%struct.Progress = type { i64, %struct.pgrs_dir, %struct.pgrs_dir, i64, i64, i32, i32, i64, i64, i64, i64, i64, i64, i64, i64, i64, %struct.curltime, %struct.curltime, %struct.curltime, %struct.curltime, %struct.curltime, [6 x i64], [6 x %struct.curltime], i32, i8 }
%struct.pgrs_dir = type { i64, i64, i64, %struct.pgrs_measure }
%struct.pgrs_measure = type { %struct.curltime, i64 }
%struct.UrlState = type { %struct.curltime, i64, i64, %struct.dynbuf, ptr, i64, ptr, i32, i32, i32, ptr, i32, i64, i32, ptr, %struct.digestdata, %struct.digestdata, %struct.auth, %struct.auth, %struct.Curl_async, ptr, i8, %struct.curltime, %struct.Curl_tree, %struct.Curl_llist, [15 x %struct.time_node], ptr, ptr, i64, i64, i64, i64, [32 x i8], i64, ptr, ptr, ptr, %struct.urlpieces, ptr, ptr, ptr, ptr, ptr, i64, %struct.dynbuf, %struct.Curl_llist, [2 x %struct.curl_header], ptr, i32, ptr, ptr, %struct.store_netrc, %struct.dynamically_allocated_data, i8, i8, i8, i8, i32 }
%struct.digestdata = type { ptr, ptr, ptr, ptr, ptr, ptr, i32, i8, i8 }
%struct.auth = type { i64, i64, i64, i8 }
%struct.Curl_async = type { ptr, ptr, ptr, ptr, i32, i32, i8 }
%struct.Curl_tree = type { ptr, ptr, ptr, ptr, %struct.curltime, ptr }
%struct.time_node = type { %struct.Curl_llist_node, %struct.curltime, i32 }
%struct.urlpieces = type { ptr, ptr, ptr, ptr, ptr, ptr, ptr, ptr }
%struct.dynbuf = type { ptr, i64, i64, i64 }
%struct.Curl_llist = type { ptr, ptr, ptr, i64 }
%struct.curl_header = type { ptr, ptr, i64, i64, i32, ptr }
%struct.store_netrc = type { %struct.dynbuf, ptr, i8 }
%struct.dynamically_allocated_data = type { ptr, ptr, ptr, ptr, ptr, ptr, ptr, ptr, ptr, ptr, ptr, ptr, ptr, ptr }
%struct.PureInfo = type { i32, i32, i32, i64, i64, i64, i64, i64, i64, i64, ptr, ptr, i64, i32, %struct.ip_quadruple, i32, ptr, i32, %struct.curl_certinfo, i32, i8 }
%struct.ip_quadruple = type { [46 x i8], [46 x i8], i32, i32 }
%struct.curl_certinfo = type { i32, ptr }
%struct.curl_tlssessioninfo = type { i32, ptr }
%struct.Curl_cfilter = type { ptr, ptr, ptr, ptr, i32, i8 }
%struct.curl_trc_feat = type { ptr, i32 }
%struct.cf_socket_ctx = type { i32, %struct.Curl_sockaddr_ex, i32, %struct.ip_quadruple, %struct.curltime, %struct.curltime, %struct.curltime, i32, i8 }
%union.__CONST_SOCKADDR_ARG = type { ptr }

@.str.27 = private unnamed_addr constant [40 x i8] c"Failed to enable TCP Fast Open on fd %d\00", align 1

; Function Attrs: nounwind uwtable
define internal i32 @do_connect(ptr noundef %0, ptr noundef %1, i1 noundef zeroext %2) #0 {
  %4 = alloca ptr, align 8
  %5 = alloca ptr, align 8
  %6 = alloca i8, align 1
  %7 = alloca ptr, align 8
  %8 = alloca i32, align 4
  %9 = alloca i32, align 4
  %10 = alloca %union.__CONST_SOCKADDR_ARG, align 8
  %11 = alloca %union.__CONST_SOCKADDR_ARG, align 8
  store ptr %0, ptr %4, align 8, !tbaa !118
  store ptr %1, ptr %5, align 8, !tbaa !23
  %12 = zext i1 %2 to i8
  store i8 %12, ptr %6, align 1, !tbaa !131
  call void @llvm.lifetime.start.p0(i64 8, ptr %7) #9
  %13 = load ptr, ptr %4, align 8, !tbaa !118
  %14 = getelementptr inbounds nuw %struct.Curl_cfilter, ptr %13, i32 0, i32 2
  %15 = load ptr, ptr %14, align 8, !tbaa !120
  store ptr %15, ptr %7, align 8, !tbaa !123
  call void @llvm.lifetime.start.p0(i64 4, ptr %8) #9
  store i32 1, ptr %8, align 4, !tbaa !10
  call void @llvm.lifetime.start.p0(i64 4, ptr %9) #9
  store i32 -1, ptr %9, align 4, !tbaa !10
  %16 = load i8, ptr %6, align 1, !tbaa !131, !range !135, !noundef !136
  %17 = trunc i8 %16 to i1
  br i1 %17, label %18, label %73

18:                                               ; preds = %3
  %19 = load ptr, ptr %7, align 8, !tbaa !123
  %20 = getelementptr inbounds nuw %struct.cf_socket_ctx, ptr %19, i32 0, i32 2
  %21 = load i32, ptr %20, align 8, !tbaa !137
  %22 = call i32 @setsockopt(i32 noundef %21, i32 noundef 6, i32 noundef 30, ptr noundef %8, i32 noundef 4) #9
  %23 = icmp slt i32 %22, 0
  br i1 %23, label %24, label %59

24:                                               ; preds = %18
  br label %25

25:                                               ; preds = %24
  %26 = load ptr, ptr %5, align 8, !tbaa !23
  %27 = icmp ne ptr %26, null
  br i1 %27, label %28, label %56

28:                                               ; preds = %25
  %29 = load ptr, ptr %5, align 8, !tbaa !23
  %30 = getelementptr inbounds nuw %struct.Curl_easy, ptr %29, i32 0, i32 16
  %31 = getelementptr inbounds nuw %struct.UserDefined, ptr %30, i32 0, i32 119
  %32 = load i64, ptr %31, align 2
  %33 = lshr i64 %32, 31
  %34 = and i64 %33, 1
  %35 = trunc i64 %34 to i32
  %36 = icmp ne i32 %35, 0
  br i1 %36, label %37, label %56

37:                                               ; preds = %28
  %38 = load ptr, ptr %5, align 8, !tbaa !23
  %39 = getelementptr inbounds nuw %struct.Curl_easy, ptr %38, i32 0, i32 21
  %40 = getelementptr inbounds nuw %struct.UrlState, ptr %39, i32 0, i32 50
  %41 = load ptr, ptr %40, align 8, !tbaa !125
  %42 = icmp ne ptr %41, null
  br i1 %42, label %43, label %51

43:                                               ; preds = %37
  %44 = load ptr, ptr %5, align 8, !tbaa !23
  %45 = getelementptr inbounds nuw %struct.Curl_easy, ptr %44, i32 0, i32 21
  %46 = getelementptr inbounds nuw %struct.UrlState, ptr %45, i32 0, i32 50
  %47 = load ptr, ptr %46, align 8, !tbaa !125
  %48 = getelementptr inbounds nuw %struct.curl_trc_feat, ptr %47, i32 0, i32 1
  %49 = load i32, ptr %48, align 8, !tbaa !126
  %50 = icmp sge i32 %49, 1
  br i1 %50, label %51, label %56

51:                                               ; preds = %43, %37
  %52 = load ptr, ptr %5, align 8, !tbaa !23
  %53 = load ptr, ptr %7, align 8, !tbaa !123
  %54 = getelementptr inbounds nuw %struct.cf_socket_ctx, ptr %53, i32 0, i32 2
  %55 = load i32, ptr %54, align 8, !tbaa !137
  call void (ptr, ptr, ...) @Curl_infof(ptr noundef %52, ptr noundef @.str.27, i32 noundef %55)
  br label %56

56:                                               ; preds = %51, %43, %28, %25
  br label %57

57:                                               ; preds = %56
  br label %58

58:                                               ; preds = %57
  br label %59

59:                                               ; preds = %58, %18
  %60 = load ptr, ptr %7, align 8, !tbaa !123
  %61 = getelementptr inbounds nuw %struct.cf_socket_ctx, ptr %60, i32 0, i32 2
  %62 = load i32, ptr %61, align 8, !tbaa !137
  %63 = load ptr, ptr %7, align 8, !tbaa !123
  %64 = getelementptr inbounds nuw %struct.cf_socket_ctx, ptr %63, i32 0, i32 1
  %65 = getelementptr inbounds nuw %struct.Curl_sockaddr_ex, ptr %64, i32 0, i32 4
  store ptr %65, ptr %10, align 8, !tbaa !116
  %66 = load ptr, ptr %7, align 8, !tbaa !123
  %67 = getelementptr inbounds nuw %struct.cf_socket_ctx, ptr %66, i32 0, i32 1
  %68 = getelementptr inbounds nuw %struct.Curl_sockaddr_ex, ptr %67, i32 0, i32 3
  %69 = load i32, ptr %68, align 4, !tbaa !177
  %70 = getelementptr inbounds nuw %union.__CONST_SOCKADDR_ARG, ptr %10, i32 0, i32 0
  %71 = load ptr, ptr %70, align 8
  %72 = call i32 @connect(i32 noundef %62, ptr %71, i32 noundef %69)
  store i32 %72, ptr %9, align 4, !tbaa !10
  br label %87

73:                                               ; preds = %3
  %74 = load ptr, ptr %7, align 8, !tbaa !123
  %75 = getelementptr inbounds nuw %struct.cf_socket_ctx, ptr %74, i32 0, i32 2
  %76 = load i32, ptr %75, align 8, !tbaa !137
  %77 = load ptr, ptr %7, align 8, !tbaa !123
  %78 = getelementptr inbounds nuw %struct.cf_socket_ctx, ptr %77, i32 0, i32 1
  %79 = getelementptr inbounds nuw %struct.Curl_sockaddr_ex, ptr %78, i32 0, i32 4
  store ptr %79, ptr %11, align 8, !tbaa !116
  %80 = load ptr, ptr %7, align 8, !tbaa !123
  %81 = getelementptr inbounds nuw %struct.cf_socket_ctx, ptr %80, i32 0, i32 1
  %82 = getelementptr inbounds nuw %struct.Curl_sockaddr_ex, ptr %81, i32 0, i32 3
  %83 = load i32, ptr %82, align 4, !tbaa !177
  %84 = getelementptr inbounds nuw %union.__CONST_SOCKADDR_ARG, ptr %11, i32 0, i32 0
  %85 = load ptr, ptr %84, align 8
  %86 = call i32 @connect(i32 noundef %76, ptr %85, i32 noundef %83)
  store i32 %86, ptr %9, align 4, !tbaa !10
  br label %87

87:                                               ; preds = %73, %59
  %88 = load i32, ptr %9, align 4, !tbaa !10
  call void @llvm.lifetime.end.p0(i64 4, ptr %9) #9
  call void @llvm.lifetime.end.p0(i64 4, ptr %8) #9
  call void @llvm.lifetime.end.p0(i64 8, ptr %7) #9
  ret i32 %88
}