; Function Attrs: nounwind uwtable
define internal fastcc i32 @do_connect(ptr %.16.val, ptr noundef %0, i1 noundef zeroext %1) unnamed_addr #2 {
  %3 = alloca i32, align 4
  call void @llvm.lifetime.start.p0(i64 4, ptr nonnull %3) #13
  store i32 1, ptr %3, align 4, !tbaa !87
  %4 = getelementptr inbounds nuw i8, ptr %.16.val, i64 152
  %5 = load i32, ptr %4, align 8, !tbaa !116
  br i1 %1, label %6, label %29

6:                                                ; preds = %2
  %7 = call i32 @setsockopt(i32 noundef %5, i32 noundef 6, i32 noundef 30, ptr noundef nonnull %3, i32 noundef 4) #13
  %8 = icmp slt i32 %7, 0
  %9 = icmp ne ptr %0, null
  %or.cond = and i1 %9, %8
  br i1 %or.cond, label %10, label %23

10:                                               ; preds = %6
  %11 = getelementptr inbounds nuw i8, ptr %0, i64 2658
  %12 = load i64, ptr %11, align 2
  %13 = and i64 %12, 2147483648
  %.not = icmp eq i64 %13, 0
  br i1 %.not, label %23, label %14

14:                                               ; preds = %10
  %15 = getelementptr inbounds nuw i8, ptr %0, i64 4864
  %16 = load ptr, ptr %15, align 8, !tbaa !108
  %.not19 = icmp eq ptr %16, null
  br i1 %.not19, label %21, label %17

17:                                               ; preds = %14
  %18 = getelementptr inbounds nuw i8, ptr %16, i64 8
  %19 = load i32, ptr %18, align 8, !tbaa !109
  %20 = icmp sgt i32 %19, 0
  br i1 %20, label %21, label %23

21:                                               ; preds = %17, %14
  %22 = load i32, ptr %4, align 8, !tbaa !116
  call void (ptr, ptr, ...) @Curl_infof(ptr noundef nonnull %0, ptr noundef nonnull @.str.27, i32 noundef %22) #13
  br label %23

23:                                               ; preds = %10, %17, %21, %6
  %24 = load i32, ptr %4, align 8, !tbaa !116
  %25 = getelementptr inbounds nuw i8, ptr %.16.val, i64 24
  %26 = getelementptr inbounds nuw i8, ptr %.16.val, i64 20
  %27 = load i32, ptr %26, align 4, !tbaa !143
  %28 = call i32 @connect(i32 noundef %24, ptr nonnull %25, i32 noundef %27) #13
  br label %34

29:                                               ; preds = %2
  %30 = getelementptr inbounds nuw i8, ptr %.16.val, i64 24
  %31 = getelementptr inbounds nuw i8, ptr %.16.val, i64 20
  %32 = load i32, ptr %31, align 4, !tbaa !143
  %33 = tail call i32 @connect(i32 noundef %5, ptr nonnull %30, i32 noundef %32) #13
  br label %34

34:                                               ; preds = %29, %23
  %.0 = phi i32 [ %28, %23 ], [ %33, %29 ]
  call void @llvm.lifetime.end.p0(i64 4, ptr nonnull %3) #13
  ret i32 %.0
}